target datalayout = "e-m:e-p270:32:32-p271:32:32-p272:64:64-i64:64-i128:128-f80:128-n8:16:32:64-S128"
target triple = "x86_64-pc-linux-gnu"

%struct.DdNode = type { i32, i32, ptr, %union.anon.1, i64 }
%union.anon.1 = type { %struct.DdChildren }
%struct.DdChildren = type { ptr, ptr }

; Function Attrs: nounwind uwtable
define ptr @Abc_NtkBddCofactors_rec(ptr noundef %0, ptr noundef %1, i32 noundef %2, i32 noundef %3, i32 noundef %4) #0 {
  %6 = alloca ptr, align 8
  %7 = alloca ptr, align 8
  %8 = alloca ptr, align 8
  %9 = alloca i32, align 4
  %10 = alloca i32, align 4
  %11 = alloca i32, align 4
  %12 = alloca ptr, align 8
  %13 = alloca ptr, align 8
  %14 = alloca i32, align 4
  store ptr %0, ptr %7, align 8, !tbaa !56
  store ptr %1, ptr %8, align 8, !tbaa !58
  store i32 %2, ptr %9, align 4, !tbaa !8
  store i32 %3, ptr %10, align 4, !tbaa !8
  store i32 %4, ptr %11, align 4, !tbaa !8
  call void @llvm.lifetime.start.p0(i64 8, ptr %12) #12
  call void @llvm.lifetime.start.p0(i64 8, ptr %13) #12
  %15 = load ptr, ptr %8, align 8, !tbaa !58
  %16 = ptrtoint ptr %15 to i64
  %17 = and i64 %16, -2
  %18 = inttoptr i64 %17 to ptr
  %19 = getelementptr inbounds nuw %struct.DdNode, ptr %18, i32 0, i32 0
  %20 = load i32, ptr %19, align 8, !tbaa !61
  %21 = icmp eq i32 %20, 2147483647
  br i1 %21, label %26, label %22

22:                                               ; preds = %5
  %23 = load i32, ptr %10, align 4, !tbaa !8
  %24 = load i32, ptr %11, align 4, !tbaa !8
  %25 = icmp eq i32 %23, %24
  br i1 %25, label %26, label %28

26:                                               ; preds = %22, %5
  %27 = load ptr, ptr %8, align 8, !tbaa !58
  store ptr %27, ptr %6, align 8
  store i32 1, ptr %14, align 4
  br label %100

28:                                               ; preds = %22
  %29 = load ptr, ptr %7, align 8, !tbaa !56
  %30 = load ptr, ptr %8, align 8, !tbaa !58
  %31 = call i32 @Cudd_NodeReadIndex(ptr noundef %30)
  %32 = call i32 @Cudd_ReadPerm(ptr noundef %29, i32 noundef %31)
  %33 = load i32, ptr %10, align 4, !tbaa !8
  %34 = icmp sgt i32 %32, %33
  br i1 %34, label %35, label %38

35:                                               ; preds = %28
  %36 = load ptr, ptr %8, align 8, !tbaa !58
  store ptr %36, ptr %12, align 8, !tbaa !58
  %37 = load ptr, ptr %8, align 8, !tbaa !58
  store ptr %37, ptr %13, align 8, !tbaa !58
  br label %75

38:                                               ; preds = %28
  %39 = load ptr, ptr %8, align 8, !tbaa !58
  %40 = ptrtoint ptr %39 to i64
  %41 = and i64 %40, 1
  %42 = trunc i64 %41 to i32
  %43 = icmp ne i32 %42, 0
  br i1 %43, label %44, label %65

44:                                               ; preds = %38
  %45 = load ptr, ptr %8, align 8, !tbaa !58
  %46 = ptrtoint ptr %45 to i64
  %47 = and i64 %46, -2
  %48 = inttoptr i64 %47 to ptr
  %49 = getelementptr inbounds nuw %struct.DdNode, ptr %48, i32 0, i32 3
  %50 = getelementptr inbounds nuw %struct.DdChildren, ptr %49, i32 0, i32 1
  %51 = load ptr, ptr %50, align 8, !tbaa !60
  %52 = ptrtoint ptr %51 to i64
  %53 = xor i64 %52, 1
  %54 = inttoptr i64 %53 to ptr
  store ptr %54, ptr %12, align 8, !tbaa !58
  %55 = load ptr, ptr %8, align 8, !tbaa !58
  %56 = ptrtoint ptr %55 to i64
  %57 = and i64 %56, -2
  %58 = inttoptr i64 %57 to ptr
  %59 = getelementptr inbounds nuw %struct.DdNode, ptr %58, i32 0, i32 3
  %60 = getelementptr inbounds nuw %struct.DdChildren, ptr %59, i32 0, i32 0
  %61 = load ptr, ptr %60, align 8, !tbaa !60
  %62 = ptrtoint ptr %61 to i64
  %63 = xor i64 %62, 1
  %64 = inttoptr i64 %63 to ptr
  store ptr %64, ptr %13, align 8, !tbaa !58
  br label %74

65:                                               ; preds = %38
  %66 = load ptr, ptr %8, align 8, !tbaa !58
  %67 = getelementptr inbounds nuw %struct.DdNode, ptr %66, i32 0, i32 3
  %68 = getelementptr inbounds nuw %struct.DdChildren, ptr %67, i32 0, i32 1
  %69 = load ptr, ptr %68, align 8, !tbaa !60
  store ptr %69, ptr %12, align 8, !tbaa !58
  %70 = load ptr, ptr %8, align 8, !tbaa !58
  %71 = getelementptr inbounds nuw %struct.DdNode, ptr %70, i32 0, i32 3
  %72 = getelementptr inbounds nuw %struct.DdChildren, ptr %71, i32 0, i32 0
  %73 = load ptr, ptr %72, align 8, !tbaa !60
  store ptr %73, ptr %13, align 8, !tbaa !58
  br label %74

74:                                               ; preds = %65, %44
  br label %75

75:                                               ; preds = %74, %35
  %76 = load i32, ptr %9, align 4, !tbaa !8
  %77 = load i32, ptr %11, align 4, !tbaa !8
  %78 = sub nsw i32 %77, 1
  %79 = load i32, ptr %10, align 4, !tbaa !8
  %80 = sub nsw i32 %78, %79
  %81 = ashr i32 %76, %80
  %82 = and i32 %81, 1
  %83 = icmp ne i32 %82, 0
  br i1 %83, label %84, label %92

84:                                               ; preds = %75
  %85 = load ptr, ptr %7, align 8, !tbaa !56
  %86 = load ptr, ptr %13, align 8, !tbaa !58
  %87 = load i32, ptr %9, align 4, !tbaa !8
  %88 = load i32, ptr %10, align 4, !tbaa !8
  %89 = add nsw i32 %88, 1
  %90 = load i32, ptr %11, align 4, !tbaa !8
  %91 = call ptr @Abc_NtkBddCofactors_rec(ptr noundef %85, ptr noundef %86, i32 noundef %87, i32 noundef %89, i32 noundef %90)
  store ptr %91, ptr %6, align 8
  store i32 1, ptr %14, align 4
  br label %100

92:                                               ; preds = %75
  %93 = load ptr, ptr %7, align 8, !tbaa !56
  %94 = load ptr, ptr %12, align 8, !tbaa !58
  %95 = load i32, ptr %9, align 4, !tbaa !8
  %96 = load i32, ptr %10, align 4, !tbaa !8
  %97 = add nsw i32 %96, 1
  %98 = load i32, ptr %11, align 4, !tbaa !8
  %99 = call ptr @Abc_NtkBddCofactors_rec(ptr noundef %93, ptr noundef %94, i32 noundef %95, i32 noundef %97, i32 noundef %98)
  store ptr %99, ptr %6, align 8
  store i32 1, ptr %14, align 4
  br label %100

100:                                              ; preds = %92, %84, %26
  call void @llvm.lifetime.end.p0(i64 8, ptr %13) #12
  call void @llvm.lifetime.end.p0(i64 8, ptr %12) #12
  %101 = load ptr, ptr %6, align 8
  ret ptr %101
}