; Function Attrs: nounwind uwtable
define ptr @Abc_NtkBddCofactors_rec(ptr noundef %0, ptr noundef %1, i32 noundef %2, i32 noundef %3, i32 noundef %4) local_unnamed_addr #0 {
  %6 = ptrtoint ptr %1 to i64
  %7 = and i64 %6, -2
  %8 = inttoptr i64 %7 to ptr
  %9 = load i32, ptr %8, align 8, !tbaa !51
  %10 = icmp eq i32 %9, 2147483647
  %11 = icmp eq i32 %3, %4
  %or.cond36 = or i1 %11, %10
  br i1 %or.cond36, label %tailrecurse._crit_edge, label %.lr.ph

.lr.ph:                                           ; preds = %5, %tailrecurse
  %12 = phi ptr [ %42, %tailrecurse ], [ %8, %5 ]
  %13 = phi i64 [ %40, %tailrecurse ], [ %6, %5 ]
  %.tr3438 = phi i32 [ %39, %tailrecurse ], [ %3, %5 ]
  %.tr3237 = phi ptr [ %.027..0, %tailrecurse ], [ %1, %5 ]
  %14 = tail call i32 @Cudd_NodeReadIndex(ptr noundef %.tr3237) #20
  %15 = tail call i32 @Cudd_ReadPerm(ptr noundef %0, i32 noundef %14) #20
  %16 = icmp sgt i32 %15, %.tr3438
  br i1 %16, label %tailrecurse, label %17

17:                                               ; preds = %.lr.ph
  %18 = and i64 %13, 1
  %.not = icmp eq i64 %18, 0
  br i1 %.not, label %30, label %19

19:                                               ; preds = %17
  %20 = getelementptr inbounds nuw i8, ptr %12, i64 16
  %21 = getelementptr inbounds nuw i8, ptr %12, i64 24
  %22 = load ptr, ptr %21, align 8, !tbaa !50
  %23 = ptrtoint ptr %22 to i64
  %24 = xor i64 %23, 1
  %25 = inttoptr i64 %24 to ptr
  %26 = load ptr, ptr %20, align 8, !tbaa !50
  %27 = ptrtoint ptr %26 to i64
  %28 = xor i64 %27, 1
  %29 = inttoptr i64 %28 to ptr
  br label %tailrecurse

30:                                               ; preds = %17
  %31 = getelementptr inbounds nuw i8, ptr %.tr3237, i64 16
  %32 = getelementptr inbounds nuw i8, ptr %.tr3237, i64 24
  %33 = load ptr, ptr %32, align 8, !tbaa !50
  %34 = load ptr, ptr %31, align 8, !tbaa !50
  br label %tailrecurse

tailrecurse:                                      ; preds = %.lr.ph, %19, %30
  %.027 = phi ptr [ %25, %19 ], [ %33, %30 ], [ %.tr3237, %.lr.ph ]
  %.0 = phi ptr [ %29, %19 ], [ %34, %30 ], [ %.tr3237, %.lr.ph ]
  %35 = xor i32 %.tr3438, -1
  %36 = add i32 %4, %35
  %37 = shl nuw i32 1, %36
  %38 = and i32 %37, %2
  %.not31 = icmp eq i32 %38, 0
  %39 = add nsw i32 %.tr3438, 1
  %.027..0 = select i1 %.not31, ptr %.027, ptr %.0
  %40 = ptrtoint ptr %.027..0 to i64
  %41 = and i64 %40, -2
  %42 = inttoptr i64 %41 to ptr
  %43 = load i32, ptr %42, align 8, !tbaa !51
  %44 = icmp eq i32 %43, 2147483647
  %45 = icmp eq i32 %39, %4
  %or.cond = or i1 %45, %44
  br i1 %or.cond, label %tailrecurse._crit_edge, label %.lr.ph

tailrecurse._crit_edge:                           ; preds = %tailrecurse, %5
  %.tr32.lcssa = phi ptr [ %1, %5 ], [ %.027..0, %tailrecurse ]
  ret ptr %.tr32.lcssa
}